(lp0
(lp1
cnumpy.core.multiarray
scalar
p2
(cnumpy
dtype
p3
(S'f8'
p4
I0
I1
tp5
Rp6
(I3
S'<'
p7
NNNI-1
I-1
I0
tp8
bS'\xf3$\xce\xb8\xf5\x1bF@'
p9
tp10
Rp11
aI2
ag2
(g6
S'\xb2\xf3f-8A\x88@'
p12
tp13
Rp14
aa.